target datalayout = "e-m:e-p270:32:32-p271:32:32-p272:64:64-i64:64-i128:128-f80:128-n8:16:32:64-S128"
target triple = "x86_64-pc-linux-gnu"

%"struct.OpenColorIO_v2_5dev::GenericImageDesc" = type <{ i64, i64, i64, i64, ptr, ptr, ptr, ptr, %"class.std::shared_ptr", i8, i8, [6 x i8] }>
%"class.std::shared_ptr" = type { %"class.std::__shared_ptr" }
%"class.std::__shared_ptr" = type { ptr, %"class.std::__shared_count" }
%"class.std::__shared_count" = type { ptr }

@_ZTIN19OpenColorIO_v2_5dev9ExceptionE = external constant ptr
@.str.1 = private unnamed_addr constant [31 x i8] c"Invalid output image position.\00", align 1
@.str.3 = private unnamed_addr constant [29 x i8] c"Invalid output image buffer.\00", align 1

; Function Attrs: mustprogress nounwind uwtable
define linkonce_odr hidden noundef ptr @_ZNKSt12__shared_ptrIKN19OpenColorIO_v2_5dev5OpCPUELN9__gnu_cxx12_Lock_policyE2EE3getEv(ptr noundef nonnull align 8 dereferenceable(16) %0) #6 comdat align 2 {
  %2 = alloca ptr, align 8
  store ptr %0, ptr %2, align 8, !tbaa !56
  %3 = load ptr, ptr %2, align 8
  %4 = getelementptr inbounds nuw %"class.std::__shared_ptr", ptr %3, i32 0, i32 0
  %5 = load ptr, ptr %4, align 8, !tbaa !58
  ret ptr %5
}

; Function Attrs: mustprogress nounwind uwtable
define linkonce_odr hidden noundef ptr @_ZNKSt19__shared_ptr_accessIKN19OpenColorIO_v2_5dev5OpCPUELN9__gnu_cxx12_Lock_policyE2ELb0ELb0EE6_M_getEv(ptr noundef nonnull align 1 dereferenceable(1) %0) #6 comdat align 2 {
  %2 = alloca ptr, align 8
  store ptr %0, ptr %2, align 8, !tbaa !36
  %3 = load ptr, ptr %2, align 8
  %4 = call noundef ptr @_ZNKSt12__shared_ptrIKN19OpenColorIO_v2_5dev5OpCPUELN9__gnu_cxx12_Lock_policyE2EE3getEv(ptr noundef nonnull align 8 dereferenceable(16) %3) #3
  ret ptr %4
}

; Function Attrs: mustprogress nounwind uwtable
define linkonce_odr hidden noundef ptr @_ZNKSt19__shared_ptr_accessIKN19OpenColorIO_v2_5dev5OpCPUELN9__gnu_cxx12_Lock_policyE2ELb0ELb0EEptEv(ptr noundef nonnull align 1 dereferenceable(1) %0) #6 comdat align 2 {
  %2 = alloca ptr, align 8
  store ptr %0, ptr %2, align 8, !tbaa !36
  %3 = load ptr, ptr %2, align 8
  %4 = call noundef ptr @_ZNKSt19__shared_ptr_accessIKN19OpenColorIO_v2_5dev5OpCPUELN9__gnu_cxx12_Lock_policyE2ELb0ELb0EE6_M_getEv(ptr noundef nonnull align 1 dereferenceable(1) %3) #3
  ret ptr %4
}

; Function Attrs: mustprogress uwtable
define hidden void @_ZN19OpenColorIO_v2_5dev7GenericIfE21PackRGBAFromImageDescERKNS_16GenericImageDescEPfS5_il(ptr noundef nonnull align 8 dereferenceable(82) %0, ptr noundef %1, ptr noundef %2, i32 noundef %3, i64 noundef %4) #4 align 2 personality ptr @__gxx_personality_v0 {
  %6 = alloca ptr, align 8
  %7 = alloca ptr, align 8
  %8 = alloca ptr, align 8
  %9 = alloca i32, align 4
  %10 = alloca i64, align 8
  %11 = alloca ptr, align 8
  %12 = alloca i32, align 4
  %13 = alloca i64, align 8
  %14 = alloca i64, align 8
  %15 = alloca i64, align 8
  %16 = alloca i64, align 8
  %17 = alloca i64, align 8
  %18 = alloca i64, align 8
  %19 = alloca i64, align 8
  %20 = alloca ptr, align 8
  %21 = alloca ptr, align 8
  %22 = alloca ptr, align 8
  %23 = alloca ptr, align 8
  %24 = alloca ptr, align 8
  %25 = alloca ptr, align 8
  %26 = alloca ptr, align 8
  %27 = alloca ptr, align 8
  %28 = alloca i32, align 4
  store ptr %0, ptr %6, align 8, !tbaa !3
  store ptr %1, ptr %7, align 8, !tbaa !10
  store ptr %2, ptr %8, align 8, !tbaa !10
  store i32 %3, ptr %9, align 4, !tbaa !12
  store i64 %4, ptr %10, align 8, !tbaa !14
  %29 = load ptr, ptr %8, align 8, !tbaa !10
  %30 = icmp eq ptr %29, null
  br i1 %30, label %31, label %38

31:                                               ; preds = %5
  %32 = call ptr @__cxa_allocate_exception(i64 16) #3
  invoke void @_ZN19OpenColorIO_v2_5dev9ExceptionC1EPKc(ptr noundef nonnull align 8 dereferenceable(16) %32, ptr noundef @.str.3)
          to label %33 unwind label %34

33:                                               ; preds = %31
  call void @__cxa_throw(ptr %32, ptr @_ZTIN19OpenColorIO_v2_5dev9ExceptionE, ptr @_ZN19OpenColorIO_v2_5dev9ExceptionD1Ev) #11
  unreachable

34:                                               ; preds = %31
  %35 = landingpad { ptr, i32 }
          cleanup
  %36 = extractvalue { ptr, i32 } %35, 0
  store ptr %36, ptr %11, align 8
  %37 = extractvalue { ptr, i32 } %35, 1
  store i32 %37, ptr %12, align 4
  call void @__cxa_free_exception(ptr %32) #3
  br label %204

38:                                               ; preds = %5
  call void @llvm.lifetime.start.p0(i64 8, ptr %13) #3
  %39 = load ptr, ptr %6, align 8, !tbaa !3
  %40 = getelementptr inbounds nuw %"struct.OpenColorIO_v2_5dev::GenericImageDesc", ptr %39, i32 0, i32 0
  %41 = load i64, ptr %40, align 8, !tbaa !16
  store i64 %41, ptr %13, align 8, !tbaa !14
  call void @llvm.lifetime.start.p0(i64 8, ptr %14) #3
  %42 = load ptr, ptr %6, align 8, !tbaa !3
  %43 = getelementptr inbounds nuw %"struct.OpenColorIO_v2_5dev::GenericImageDesc", ptr %42, i32 0, i32 1
  %44 = load i64, ptr %43, align 8, !tbaa !24
  store i64 %44, ptr %14, align 8, !tbaa !14
  call void @llvm.lifetime.start.p0(i64 8, ptr %15) #3
  %45 = load i64, ptr %13, align 8, !tbaa !14
  %46 = load i64, ptr %14, align 8, !tbaa !14
  %47 = mul nsw i64 %45, %46
  store i64 %47, ptr %15, align 8, !tbaa !14
  %48 = load i64, ptr %10, align 8, !tbaa !14
  %49 = icmp slt i64 %48, 0
  br i1 %49, label %54, label %50

50:                                               ; preds = %38
  %51 = load i64, ptr %10, align 8, !tbaa !14
  %52 = load i64, ptr %15, align 8, !tbaa !14
  %53 = icmp sge i64 %51, %52
  br i1 %53, label %54, label %61

54:                                               ; preds = %50, %38
  %55 = call ptr @__cxa_allocate_exception(i64 16) #3
  invoke void @_ZN19OpenColorIO_v2_5dev9ExceptionC1EPKc(ptr noundef nonnull align 8 dereferenceable(16) %55, ptr noundef @.str.1)
          to label %56 unwind label %57

56:                                               ; preds = %54
  call void @__cxa_throw(ptr %55, ptr @_ZTIN19OpenColorIO_v2_5dev9ExceptionE, ptr @_ZN19OpenColorIO_v2_5dev9ExceptionD1Ev) #11
  unreachable

57:                                               ; preds = %54
  %58 = landingpad { ptr, i32 }
          cleanup
  %59 = extractvalue { ptr, i32 } %58, 0
  store ptr %59, ptr %11, align 8
  %60 = extractvalue { ptr, i32 } %58, 1
  store i32 %60, ptr %12, align 4
  call void @__cxa_free_exception(ptr %55) #3
  call void @llvm.lifetime.end.p0(i64 8, ptr %15) #3
  call void @llvm.lifetime.end.p0(i64 8, ptr %14) #3
  call void @llvm.lifetime.end.p0(i64 8, ptr %13) #3
  br label %204

61:                                               ; preds = %50
  call void @llvm.lifetime.start.p0(i64 8, ptr %16) #3
  %62 = load ptr, ptr %6, align 8, !tbaa !3
  %63 = getelementptr inbounds nuw %"struct.OpenColorIO_v2_5dev::GenericImageDesc", ptr %62, i32 0, i32 2
  %64 = load i64, ptr %63, align 8, !tbaa !25
  store i64 %64, ptr %16, align 8, !tbaa !14
  call void @llvm.lifetime.start.p0(i64 8, ptr %17) #3
  %65 = load ptr, ptr %6, align 8, !tbaa !3
  %66 = getelementptr inbounds nuw %"struct.OpenColorIO_v2_5dev::GenericImageDesc", ptr %65, i32 0, i32 3
  %67 = load i64, ptr %66, align 8, !tbaa !26
  store i64 %67, ptr %17, align 8, !tbaa !14
  call void @llvm.lifetime.start.p0(i64 8, ptr %18) #3
  %68 = load i64, ptr %10, align 8, !tbaa !14
  %69 = load i64, ptr %13, align 8, !tbaa !14
  %70 = sdiv i64 %68, %69
  store i64 %70, ptr %18, align 8, !tbaa !14
  call void @llvm.lifetime.start.p0(i64 8, ptr %19) #3
  %71 = load i64, ptr %10, align 8, !tbaa !14
  %72 = load i64, ptr %13, align 8, !tbaa !14
  %73 = srem i64 %71, %72
  store i64 %73, ptr %19, align 8, !tbaa !14
  call void @llvm.lifetime.start.p0(i64 8, ptr %20) #3
  %74 = load ptr, ptr %6, align 8, !tbaa !3
  %75 = getelementptr inbounds nuw %"struct.OpenColorIO_v2_5dev::GenericImageDesc", ptr %74, i32 0, i32 4
  %76 = load ptr, ptr %75, align 8, !tbaa !27
  %77 = load i64, ptr %17, align 8, !tbaa !14
  %78 = load i64, ptr %18, align 8, !tbaa !14
  %79 = mul nsw i64 %77, %78
  %80 = getelementptr inbounds i8, ptr %76, i64 %79
  store ptr %80, ptr %20, align 8, !tbaa !8
  call void @llvm.lifetime.start.p0(i64 8, ptr %21) #3
  %81 = load ptr, ptr %6, align 8, !tbaa !3
  %82 = getelementptr inbounds nuw %"struct.OpenColorIO_v2_5dev::GenericImageDesc", ptr %81, i32 0, i32 5
  %83 = load ptr, ptr %82, align 8, !tbaa !28
  %84 = load i64, ptr %17, align 8, !tbaa !14
  %85 = load i64, ptr %18, align 8, !tbaa !14
  %86 = mul nsw i64 %84, %85
  %87 = getelementptr inbounds i8, ptr %83, i64 %86
  store ptr %87, ptr %21, align 8, !tbaa !8
  call void @llvm.lifetime.start.p0(i64 8, ptr %22) #3
  %88 = load ptr, ptr %6, align 8, !tbaa !3
  %89 = getelementptr inbounds nuw %"struct.OpenColorIO_v2_5dev::GenericImageDesc", ptr %88, i32 0, i32 6
  %90 = load ptr, ptr %89, align 8, !tbaa !29
  %91 = load i64, ptr %17, align 8, !tbaa !14
  %92 = load i64, ptr %18, align 8, !tbaa !14
  %93 = mul nsw i64 %91, %92
  %94 = getelementptr inbounds i8, ptr %90, i64 %93
  store ptr %94, ptr %22, align 8, !tbaa !8
  call void @llvm.lifetime.start.p0(i64 8, ptr %23) #3
  store ptr null, ptr %23, align 8, !tbaa !8
  call void @llvm.lifetime.start.p0(i64 8, ptr %24) #3
  %95 = load ptr, ptr %20, align 8, !tbaa !8
  %96 = load i64, ptr %16, align 8, !tbaa !14
  %97 = load i64, ptr %19, align 8, !tbaa !14
  %98 = mul nsw i64 %96, %97
  %99 = getelementptr inbounds i8, ptr %95, i64 %98
  store ptr %99, ptr %24, align 8, !tbaa !10
  call void @llvm.lifetime.start.p0(i64 8, ptr %25) #3
  %100 = load ptr, ptr %21, align 8, !tbaa !8
  %101 = load i64, ptr %16, align 8, !tbaa !14
  %102 = load i64, ptr %19, align 8, !tbaa !14
  %103 = mul nsw i64 %101, %102
  %104 = getelementptr inbounds i8, ptr %100, i64 %103
  store ptr %104, ptr %25, align 8, !tbaa !10
  call void @llvm.lifetime.start.p0(i64 8, ptr %26) #3
  %105 = load ptr, ptr %22, align 8, !tbaa !8
  %106 = load i64, ptr %16, align 8, !tbaa !14
  %107 = load i64, ptr %19, align 8, !tbaa !14
  %108 = mul nsw i64 %106, %107
  %109 = getelementptr inbounds i8, ptr %105, i64 %108
  store ptr %109, ptr %26, align 8, !tbaa !10
  call void @llvm.lifetime.start.p0(i64 8, ptr %27) #3
  store ptr null, ptr %27, align 8, !tbaa !10
  %110 = load ptr, ptr %6, align 8, !tbaa !3
  %111 = getelementptr inbounds nuw %"struct.OpenColorIO_v2_5dev::GenericImageDesc", ptr %110, i32 0, i32 7
  %112 = load ptr, ptr %111, align 8, !tbaa !30
  %113 = icmp ne ptr %112, null
  br i1 %113, label %114, label %127

114:                                              ; preds = %61
  %115 = load ptr, ptr %6, align 8, !tbaa !3
  %116 = getelementptr inbounds nuw %"struct.OpenColorIO_v2_5dev::GenericImageDesc", ptr %115, i32 0, i32 7
  %117 = load ptr, ptr %116, align 8, !tbaa !30
  %118 = load i64, ptr %17, align 8, !tbaa !14
  %119 = load i64, ptr %18, align 8, !tbaa !14
  %120 = mul nsw i64 %118, %119
  %121 = getelementptr inbounds i8, ptr %117, i64 %120
  store ptr %121, ptr %23, align 8, !tbaa !8
  %122 = load ptr, ptr %23, align 8, !tbaa !8
  %123 = load i64, ptr %16, align 8, !tbaa !14
  %124 = load i64, ptr %19, align 8, !tbaa !14
  %125 = mul nsw i64 %123, %124
  %126 = getelementptr inbounds i8, ptr %122, i64 %125
  store ptr %126, ptr %27, align 8, !tbaa !10
  br label %127

127:                                              ; preds = %114, %61
  call void @llvm.lifetime.start.p0(i64 4, ptr %28) #3
  store i32 0, ptr %28, align 4, !tbaa !12
  br label %128

128:                                              ; preds = %190, %127
  %129 = load i32, ptr %28, align 4, !tbaa !12
  %130 = load i32, ptr %9, align 4, !tbaa !12
  %131 = icmp slt i32 %129, %130
  br i1 %131, label %132, label %191

132:                                              ; preds = %128
  %133 = load ptr, ptr %24, align 8, !tbaa !10
  %134 = load float, ptr %133, align 4, !tbaa !49
  %135 = load ptr, ptr %8, align 8, !tbaa !10
  %136 = load i32, ptr %28, align 4, !tbaa !12
  %137 = mul nsw i32 4, %136
  %138 = add nsw i32 %137, 0
  %139 = sext i32 %138 to i64
  %140 = getelementptr inbounds float, ptr %135, i64 %139
  store float %134, ptr %140, align 4, !tbaa !49
  %141 = load ptr, ptr %25, align 8, !tbaa !10
  %142 = load float, ptr %141, align 4, !tbaa !49
  %143 = load ptr, ptr %8, align 8, !tbaa !10
  %144 = load i32, ptr %28, align 4, !tbaa !12
  %145 = mul nsw i32 4, %144
  %146 = add nsw i32 %145, 1
  %147 = sext i32 %146 to i64
  %148 = getelementptr inbounds float, ptr %143, i64 %147
  store float %142, ptr %148, align 4, !tbaa !49
  %149 = load ptr, ptr %26, align 8, !tbaa !10
  %150 = load float, ptr %149, align 4, !tbaa !49
  %151 = load ptr, ptr %8, align 8, !tbaa !10
  %152 = load i32, ptr %28, align 4, !tbaa !12
  %153 = mul nsw i32 4, %152
  %154 = add nsw i32 %153, 2
  %155 = sext i32 %154 to i64
  %156 = getelementptr inbounds float, ptr %151, i64 %155
  store float %150, ptr %156, align 4, !tbaa !49
  %157 = load ptr, ptr %27, align 8, !tbaa !10
  %158 = icmp ne ptr %157, null
  br i1 %158, label %159, label %162

159:                                              ; preds = %132
  %160 = load ptr, ptr %27, align 8, !tbaa !10
  %161 = load float, ptr %160, align 4, !tbaa !49
  br label %163

162:                                              ; preds = %132
  br label %163

163:                                              ; preds = %162, %159
  %164 = phi float [ %161, %159 ], [ 0.000000e+00, %162 ]
  %165 = load ptr, ptr %8, align 8, !tbaa !10
  %166 = load i32, ptr %28, align 4, !tbaa !12
  %167 = mul nsw i32 4, %166
  %168 = add nsw i32 %167, 3
  %169 = sext i32 %168 to i64
  %170 = getelementptr inbounds float, ptr %165, i64 %169
  store float %164, ptr %170, align 4, !tbaa !49
  %171 = load i32, ptr %28, align 4, !tbaa !12
  %172 = add nsw i32 %171, 1
  store i32 %172, ptr %28, align 4, !tbaa !12
  %173 = load i64, ptr %19, align 8, !tbaa !14
  %174 = add nsw i64 %173, 1
  store i64 %174, ptr %19, align 8, !tbaa !14
  %175 = load ptr, ptr %24, align 8, !tbaa !10
  %176 = load i64, ptr %16, align 8, !tbaa !14
  %177 = getelementptr inbounds i8, ptr %175, i64 %176
  store ptr %177, ptr %24, align 8, !tbaa !10
  %178 = load ptr, ptr %25, align 8, !tbaa !10
  %179 = load i64, ptr %16, align 8, !tbaa !14
  %180 = getelementptr inbounds i8, ptr %178, i64 %179
  store ptr %180, ptr %25, align 8, !tbaa !10
  %181 = load ptr, ptr %26, align 8, !tbaa !10
  %182 = load i64, ptr %16, align 8, !tbaa !14
  %183 = getelementptr inbounds i8, ptr %181, i64 %182
  store ptr %183, ptr %26, align 8, !tbaa !10
  %184 = load ptr, ptr %27, align 8, !tbaa !10
  %185 = icmp ne ptr %184, null
  br i1 %185, label %186, label %190

186:                                              ; preds = %163
  %187 = load ptr, ptr %27, align 8, !tbaa !10
  %188 = load i64, ptr %16, align 8, !tbaa !14
  %189 = getelementptr inbounds i8, ptr %187, i64 %188
  store ptr %189, ptr %27, align 8, !tbaa !10
  br label %190

190:                                              ; preds = %186, %163
  br label %128, !llvm.loop !54

191:                                              ; preds = %128
  %192 = load ptr, ptr %6, align 8, !tbaa !3
  %193 = getelementptr inbounds nuw %"struct.OpenColorIO_v2_5dev::GenericImageDesc", ptr %192, i32 0, i32 8
  %194 = call noundef ptr @_ZNKSt19__shared_ptr_accessIKN19OpenColorIO_v2_5dev5OpCPUELN9__gnu_cxx12_Lock_policyE2ELb0ELb0EEptEv(ptr noundef nonnull align 1 dereferenceable(1) %193) #3
  %195 = load ptr, ptr %8, align 8, !tbaa !10
  %196 = getelementptr inbounds float, ptr %195, i64 0
  %197 = load ptr, ptr %8, align 8, !tbaa !10
  %198 = getelementptr inbounds float, ptr %197, i64 0
  %199 = load i32, ptr %28, align 4, !tbaa !12
  %200 = sext i32 %199 to i64
  %201 = load ptr, ptr %194, align 8, !tbaa !34
  %202 = getelementptr inbounds ptr, ptr %201, i64 2
  %203 = load ptr, ptr %202, align 8
  call void %203(ptr noundef nonnull align 8 dereferenceable(8) %194, ptr noundef %196, ptr noundef %198, i64 noundef %200)
  call void @llvm.lifetime.end.p0(i64 4, ptr %28) #3
  call void @llvm.lifetime.end.p0(i64 8, ptr %27) #3
  call void @llvm.lifetime.end.p0(i64 8, ptr %26) #3
  call void @llvm.lifetime.end.p0(i64 8, ptr %25) #3
  call void @llvm.lifetime.end.p0(i64 8, ptr %24) #3
  call void @llvm.lifetime.end.p0(i64 8, ptr %23) #3
  call void @llvm.lifetime.end.p0(i64 8, ptr %22) #3
  call void @llvm.lifetime.end.p0(i64 8, ptr %21) #3
  call void @llvm.lifetime.end.p0(i64 8, ptr %20) #3
  call void @llvm.lifetime.end.p0(i64 8, ptr %19) #3
  call void @llvm.lifetime.end.p0(i64 8, ptr %18) #3
  call void @llvm.lifetime.end.p0(i64 8, ptr %17) #3
  call void @llvm.lifetime.end.p0(i64 8, ptr %16) #3
  call void @llvm.lifetime.end.p0(i64 8, ptr %15) #3
  call void @llvm.lifetime.end.p0(i64 8, ptr %14) #3
  call void @llvm.lifetime.end.p0(i64 8, ptr %13) #3
  ret void

204:                                              ; preds = %57, %34
  %205 = load ptr, ptr %11, align 8
  %206 = load i32, ptr %12, align 4
  %207 = insertvalue { ptr, i32 } poison, ptr %205, 0
  %208 = insertvalue { ptr, i32 } %207, i32 %206, 1
  resume { ptr, i32 } %208
}