; Function Attrs: mustprogress uwtable
define hidden void @_ZN19OpenColorIO_v2_5dev7GenericIfE21PackRGBAFromImageDescERKNS_16GenericImageDescEPfS5_il(ptr noundef nonnull readonly align 8 captures(none) dereferenceable(82) %0, ptr noundef readnone captures(none) %1, ptr noundef %2, i32 noundef %3, i64 noundef %4) local_unnamed_addr #3 align 2 personality ptr @__gxx_personality_v0 {
  %6 = icmp eq ptr %2, null
  br i1 %6, label %7, label %12

7:                                                ; preds = %5
  %8 = tail call ptr @__cxa_allocate_exception(i64 16) #6
  invoke void @_ZN19OpenColorIO_v2_5dev9ExceptionC1EPKc(ptr noundef nonnull align 8 dereferenceable(16) %8, ptr noundef nonnull @.str.3)
          to label %9 unwind label %10

9:                                                ; preds = %7
  tail call void @__cxa_throw(ptr nonnull %8, ptr nonnull @_ZTIN19OpenColorIO_v2_5dev9ExceptionE, ptr nonnull @_ZN19OpenColorIO_v2_5dev9ExceptionD1Ev) #7
  unreachable

10:                                               ; preds = %7
  %11 = landingpad { ptr, i32 }
          cleanup
  br label %75

12:                                               ; preds = %5
  %13 = load i64, ptr %0, align 8, !tbaa !3
  %14 = icmp slt i64 %4, 0
  br i1 %14, label %19, label %15

15:                                               ; preds = %12
  %16 = getelementptr inbounds nuw i8, ptr %0, i64 8
  %17 = load i64, ptr %16, align 8, !tbaa !16
  %18 = mul nsw i64 %17, %13
  %.not = icmp slt i64 %4, %18
  br i1 %.not, label %24, label %19

19:                                               ; preds = %15, %12
  %20 = tail call ptr @__cxa_allocate_exception(i64 16) #6
  invoke void @_ZN19OpenColorIO_v2_5dev9ExceptionC1EPKc(ptr noundef nonnull align 8 dereferenceable(16) %20, ptr noundef nonnull @.str.1)
          to label %21 unwind label %22

21:                                               ; preds = %19
  tail call void @__cxa_throw(ptr nonnull %20, ptr nonnull @_ZTIN19OpenColorIO_v2_5dev9ExceptionE, ptr nonnull @_ZN19OpenColorIO_v2_5dev9ExceptionD1Ev) #7
  unreachable

22:                                               ; preds = %19
  %23 = landingpad { ptr, i32 }
          cleanup
  br label %75

24:                                               ; preds = %15
  %25 = getelementptr inbounds nuw i8, ptr %0, i64 16
  %26 = load i64, ptr %25, align 8, !tbaa !17
  %27 = icmp sgt i32 %3, 0
  br i1 %27, label %.lr.ph.preheader, label %._crit_edge

.lr.ph.preheader:                                 ; preds = %24
  %28 = getelementptr inbounds nuw i8, ptr %0, i64 56
  %29 = load ptr, ptr %28, align 8, !tbaa !18
  %.not80 = icmp eq ptr %29, null
  %30 = sdiv i64 %4, %13
  %31 = getelementptr inbounds nuw i8, ptr %0, i64 24
  %32 = load i64, ptr %31, align 8, !tbaa !19
  %33 = mul nsw i64 %30, %32
  %34 = getelementptr inbounds i8, ptr %29, i64 %33
  %35 = srem i64 %4, %13
  %36 = mul nsw i64 %35, %26
  %37 = getelementptr inbounds i8, ptr %34, i64 %36
  %38 = getelementptr inbounds nuw i8, ptr %0, i64 48
  %39 = load ptr, ptr %38, align 8, !tbaa !20
  %40 = getelementptr inbounds i8, ptr %39, i64 %33
  %41 = getelementptr inbounds i8, ptr %40, i64 %36
  %42 = getelementptr inbounds nuw i8, ptr %0, i64 40
  %43 = load ptr, ptr %42, align 8, !tbaa !21
  %44 = getelementptr inbounds i8, ptr %43, i64 %33
  %45 = getelementptr inbounds i8, ptr %44, i64 %36
  %46 = getelementptr inbounds nuw i8, ptr %0, i64 32
  %47 = load ptr, ptr %46, align 8, !tbaa !22
  %48 = getelementptr inbounds i8, ptr %47, i64 %33
  %49 = getelementptr inbounds i8, ptr %48, i64 %36
  %wide.trip.count = zext nneg i32 %3 to i64
  %spec.select90 = select i1 %.not80, ptr null, ptr %37
  br label %.lr.ph

.lr.ph:                                           ; preds = %.lr.ph.preheader, %61
  %indvars.iv = phi i64 [ %indvars.iv.next, %61 ], [ 0, %.lr.ph.preheader ]
  %.186 = phi ptr [ %spec.select, %61 ], [ %spec.select90, %.lr.ph.preheader ]
  %.07185 = phi ptr [ %67, %61 ], [ %41, %.lr.ph.preheader ]
  %.07284 = phi ptr [ %66, %61 ], [ %45, %.lr.ph.preheader ]
  %.07383 = phi ptr [ %65, %61 ], [ %49, %.lr.ph.preheader ]
  %50 = load float, ptr %.07383, align 4, !tbaa !36
  %51 = shl nsw i64 %indvars.iv, 2
  %52 = getelementptr inbounds nuw float, ptr %2, i64 %51
  store float %50, ptr %52, align 4, !tbaa !36
  %53 = load float, ptr %.07284, align 4, !tbaa !36
  %54 = or disjoint i64 %51, 1
  %55 = getelementptr inbounds nuw float, ptr %2, i64 %54
  store float %53, ptr %55, align 4, !tbaa !36
  %56 = load float, ptr %.07185, align 4, !tbaa !36
  %57 = or disjoint i64 %51, 2
  %58 = getelementptr inbounds nuw float, ptr %2, i64 %57
  store float %56, ptr %58, align 4, !tbaa !36
  %.not81 = icmp eq ptr %.186, null
  br i1 %.not81, label %61, label %59

59:                                               ; preds = %.lr.ph
  %60 = load float, ptr %.186, align 4, !tbaa !36
  br label %61

61:                                               ; preds = %.lr.ph, %59
  %62 = phi float [ %60, %59 ], [ 0.000000e+00, %.lr.ph ]
  %63 = or disjoint i64 %51, 3
  %64 = getelementptr inbounds nuw float, ptr %2, i64 %63
  store float %62, ptr %64, align 4, !tbaa !36
  %indvars.iv.next = add nuw nsw i64 %indvars.iv, 1
  %65 = getelementptr inbounds i8, ptr %.07383, i64 %26
  %66 = getelementptr inbounds i8, ptr %.07284, i64 %26
  %67 = getelementptr inbounds i8, ptr %.07185, i64 %26
  %68 = getelementptr inbounds i8, ptr %.186, i64 %26
  %spec.select = select i1 %.not81, ptr null, ptr %68
  %exitcond.not = icmp eq i64 %indvars.iv.next, %wide.trip.count
  br i1 %exitcond.not, label %._crit_edge.loopexit, label %.lr.ph, !llvm.loop !38

._crit_edge.loopexit:                             ; preds = %61
  %69 = zext nneg i32 %3 to i64
  br label %._crit_edge

._crit_edge:                                      ; preds = %24, %._crit_edge.loopexit
  %.0.lcssa = phi i64 [ %69, %._crit_edge.loopexit ], [ 0, %24 ]
  %70 = getelementptr inbounds nuw i8, ptr %0, i64 64
  %71 = load ptr, ptr %70, align 8, !tbaa !26
  %72 = load ptr, ptr %71, align 8, !tbaa !27
  %73 = getelementptr inbounds nuw i8, ptr %72, i64 16
  %74 = load ptr, ptr %73, align 8
  tail call void %74(ptr noundef nonnull align 8 dereferenceable(8) %71, ptr noundef nonnull %2, ptr noundef nonnull %2, i64 noundef %.0.lcssa)
  ret void

75:                                               ; preds = %22, %10
  %.sink = phi ptr [ %20, %22 ], [ %8, %10 ]
  %.pn = phi { ptr, i32 } [ %23, %22 ], [ %11, %10 ]
  tail call void @__cxa_free_exception(ptr nonnull %.sink) #6
  resume { ptr, i32 } %.pn
}